target datalayout = "e-m:e-p270:32:32-p271:32:32-p272:64:64-i64:64-i128:128-f80:128-n8:16:32:64-S128"
target triple = "x86_64-pc-linux-gnu"

%struct.AVFilterContext = type { ptr, ptr, ptr, ptr, ptr, i32, ptr, ptr, i32, ptr, ptr, i32, i32, ptr, ptr, ptr, ptr, i32, ptr, i32, i32 }
%struct.ADecorrelateContext = type { ptr, i32, i64, i32, ptr, %struct.AVLFG, ptr }
%struct.AVLFG = type { [64 x i32], i32 }
%struct.APContext = type { i32, i32, ptr, ptr, double, double, double, double }

; Function Attrs: nounwind uwtable
define internal void @ap_free(ptr noundef %0) #1 {
  %2 = alloca ptr, align 8
  store ptr %0, ptr %2, align 8, !tbaa !67
  %3 = load ptr, ptr %2, align 8, !tbaa !67
  %4 = getelementptr inbounds nuw %struct.APContext, ptr %3, i32 0, i32 2
  call void @av_freep(ptr noundef %4)
  %5 = load ptr, ptr %2, align 8, !tbaa !67
  %6 = getelementptr inbounds nuw %struct.APContext, ptr %5, i32 0, i32 3
  call void @av_freep(ptr noundef %6)
  ret void
}

; Function Attrs: cold nounwind optsize uwtable
define internal void @uninit(ptr noundef %0) #0 {
  %2 = alloca ptr, align 8
  %3 = alloca ptr, align 8
  %4 = alloca i32, align 4
  %5 = alloca i32, align 4
  %6 = alloca i32, align 4
  store ptr %0, ptr %2, align 8, !tbaa !4
  call void @llvm.lifetime.start.p0(i64 8, ptr %3) #8
  %7 = load ptr, ptr %2, align 8, !tbaa !4
  %8 = getelementptr inbounds nuw %struct.AVFilterContext, ptr %7, i32 0, i32 9
  %9 = load ptr, ptr %8, align 8, !tbaa !9
  store ptr %9, ptr %3, align 8, !tbaa !22
  %10 = load ptr, ptr %3, align 8, !tbaa !22
  %11 = getelementptr inbounds nuw %struct.ADecorrelateContext, ptr %10, i32 0, i32 4
  %12 = load ptr, ptr %11, align 8, !tbaa !24
  %13 = icmp ne ptr %12, null
  br i1 %13, label %14, label %48

14:                                               ; preds = %1
  call void @llvm.lifetime.start.p0(i64 4, ptr %4) #8
  store i32 0, ptr %4, align 4, !tbaa !29
  br label %15

15:                                               ; preds = %44, %14
  %16 = load i32, ptr %4, align 4, !tbaa !29
  %17 = load ptr, ptr %3, align 8, !tbaa !22
  %18 = getelementptr inbounds nuw %struct.ADecorrelateContext, ptr %17, i32 0, i32 3
  %19 = load i32, ptr %18, align 8, !tbaa !30
  %20 = icmp slt i32 %16, %19
  br i1 %20, label %22, label %21

21:                                               ; preds = %15
  store i32 2, ptr %5, align 4
  call void @llvm.lifetime.end.p0(i64 4, ptr %4) #8
  br label %47

22:                                               ; preds = %15
  call void @llvm.lifetime.start.p0(i64 4, ptr %6) #8
  store i32 0, ptr %6, align 4, !tbaa !29
  br label %23

23:                                               ; preds = %40, %22
  %24 = load i32, ptr %6, align 4, !tbaa !29
  %25 = load ptr, ptr %3, align 8, !tbaa !22
  %26 = getelementptr inbounds nuw %struct.ADecorrelateContext, ptr %25, i32 0, i32 1
  %27 = load i32, ptr %26, align 8, !tbaa !31
  %28 = icmp slt i32 %24, %27
  br i1 %28, label %30, label %29

29:                                               ; preds = %23
  store i32 5, ptr %5, align 4
  call void @llvm.lifetime.end.p0(i64 4, ptr %6) #8
  br label %43

30:                                               ; preds = %23
  %31 = load ptr, ptr %3, align 8, !tbaa !22
  %32 = getelementptr inbounds nuw %struct.ADecorrelateContext, ptr %31, i32 0, i32 4
  %33 = load ptr, ptr %32, align 8, !tbaa !24
  %34 = load i32, ptr %4, align 4, !tbaa !29
  %35 = sext i32 %34 to i64
  %36 = getelementptr inbounds [16 x %struct.APContext], ptr %33, i64 %35
  %37 = load i32, ptr %6, align 4, !tbaa !29
  %38 = sext i32 %37 to i64
  %39 = getelementptr inbounds [16 x %struct.APContext], ptr %36, i64 0, i64 %38
  call void @ap_free(ptr noundef %39)
  br label %40

40:                                               ; preds = %30
  %41 = load i32, ptr %6, align 4, !tbaa !29
  %42 = add nsw i32 %41, 1
  store i32 %42, ptr %6, align 4, !tbaa !29
  br label %23, !llvm.loop !32

43:                                               ; preds = %29
  br label %44

44:                                               ; preds = %43
  %45 = load i32, ptr %4, align 4, !tbaa !29
  %46 = add nsw i32 %45, 1
  store i32 %46, ptr %4, align 4, !tbaa !29
  br label %15, !llvm.loop !34

47:                                               ; preds = %21
  br label %48

48:                                               ; preds = %47, %1
  %49 = load ptr, ptr %3, align 8, !tbaa !22
  %50 = getelementptr inbounds nuw %struct.ADecorrelateContext, ptr %49, i32 0, i32 4
  call void @av_freep(ptr noundef %50)
  call void @llvm.lifetime.end.p0(i64 8, ptr %3) #8
  ret void
}