; Function Attrs: cold nounwind optsize uwtable
define internal void @uninit(ptr noundef readonly captures(none) %0) #0 {
  %2 = getelementptr inbounds nuw i8, ptr %0, i64 72
  %3 = load ptr, ptr %2, align 8, !tbaa !4
  %4 = getelementptr inbounds nuw i8, ptr %3, i64 32
  %5 = load ptr, ptr %4, align 8, !tbaa !20
  %.not = icmp eq ptr %5, null
  br i1 %.not, label %.loopexit, label %.preheader12

.preheader12:                                     ; preds = %1
  %6 = getelementptr inbounds nuw i8, ptr %3, i64 24
  %7 = load i32, ptr %6, align 8, !tbaa !25
  %8 = icmp sgt i32 %7, 0
  br i1 %8, label %.preheader.lr.ph, label %.loopexit

.preheader.lr.ph:                                 ; preds = %.preheader12
  %9 = getelementptr inbounds nuw i8, ptr %3, i64 8
  %.pre = load i32, ptr %9, align 8, !tbaa !26
  br label %.preheader

.preheader:                                       ; preds = %.preheader.lr.ph, %._crit_edge
  %10 = phi i32 [ %7, %.preheader.lr.ph ], [ %13, %._crit_edge ]
  %11 = phi i32 [ %.pre, %.preheader.lr.ph ], [ %14, %._crit_edge ]
  %indvars.iv16 = phi i64 [ 0, %.preheader.lr.ph ], [ %indvars.iv.next17, %._crit_edge ]
  %12 = icmp sgt i32 %11, 0
  br i1 %12, label %.lr.ph, label %._crit_edge

._crit_edge.loopexit:                             ; preds = %.lr.ph
  %.pre19 = load i32, ptr %6, align 8, !tbaa !25
  br label %._crit_edge

._crit_edge:                                      ; preds = %._crit_edge.loopexit, %.preheader
  %13 = phi i32 [ %.pre19, %._crit_edge.loopexit ], [ %10, %.preheader ]
  %14 = phi i32 [ %21, %._crit_edge.loopexit ], [ %11, %.preheader ]
  %indvars.iv.next17 = add nuw nsw i64 %indvars.iv16, 1
  %15 = sext i32 %13 to i64
  %16 = icmp slt i64 %indvars.iv.next17, %15
  br i1 %16, label %.preheader, label %.loopexit, !llvm.loop !27

.lr.ph:                                           ; preds = %.preheader, %.lr.ph
  %indvars.iv = phi i64 [ %indvars.iv.next, %.lr.ph ], [ 0, %.preheader ]
  %17 = load ptr, ptr %4, align 8, !tbaa !20
  %18 = getelementptr inbounds nuw [16 x %struct.APContext], ptr %17, i64 %indvars.iv16, i64 %indvars.iv
  %19 = getelementptr inbounds nuw i8, ptr %18, i64 8
  tail call void @av_freep(ptr noundef nonnull %19) #8
  %20 = getelementptr inbounds nuw i8, ptr %18, i64 16
  tail call void @av_freep(ptr noundef nonnull %20) #8
  %indvars.iv.next = add nuw nsw i64 %indvars.iv, 1
  %21 = load i32, ptr %9, align 8, !tbaa !26
  %22 = sext i32 %21 to i64
  %23 = icmp slt i64 %indvars.iv.next, %22
  br i1 %23, label %.lr.ph, label %._crit_edge.loopexit, !llvm.loop !29

.loopexit:                                        ; preds = %._crit_edge, %.preheader12, %1
  tail call void @av_freep(ptr noundef nonnull %4) #8
  ret void
}